; Function Attrs: null_pointer_is_valid sspstrong uwtable
define hidden void @dissect_gtpv2_mei(ptr noundef %0, ptr noundef readonly captures(none) %1, ptr noundef %2, ptr noundef %3, i16 noundef zeroext %4, i8 zeroext %5, i8 zeroext %6, ptr readnone captures(none) %7) #1 {
  %9 = alloca ptr, align 8
  call void @llvm.lifetime.start.p0(i64 8, ptr nonnull %9) #12
  %10 = load i32, ptr @hf_gtpv2_mei, align 4
  %11 = zext i16 %4 to i32
  %12 = getelementptr inbounds nuw i8, ptr %1, i64 408
  %13 = load ptr, ptr %12, align 8
  %14 = call ptr @proto_tree_add_item_ret_display_string(ptr noundef %2, i32 noundef %10, ptr noundef %0, i32 noundef 0, i32 noundef %11, i32 noundef -2147483580, ptr noundef %13, ptr noundef nonnull %9)
  %15 = load ptr, ptr %9, align 8
  call void (ptr, ptr, ...) @proto_item_append_text(ptr noundef %3, ptr noundef nonnull @.str.1, ptr noundef %15)
  call void @llvm.lifetime.end.p0(i64 8, ptr nonnull %9) #12
  ret void
}